; Function Attrs: mustprogress uwtable
define internal noundef zeroext i1 @_ZNK7rocksdb12_GLOBAL__N_19VectorRep8Iterator5ValidEv(ptr nocapture noundef nonnull align 8 dereferenceable(81) %this) unnamed_addr #3 align 2 {
entry:
  tail call fastcc void @_ZNK7rocksdb12_GLOBAL__N_19VectorRep8Iterator6DoSortEv(ptr noundef nonnull align 8 dereferenceable(81) %this)
  %cit_ = getelementptr inbounds i8, ptr %this, i64 32
  %bucket_ = getelementptr inbounds i8, ptr %this, i64 16
  %0 = load ptr, ptr %bucket_, align 8
  %_M_finish.i = getelementptr inbounds i8, ptr %0, i64 8
  %1 = load ptr, ptr %_M_finish.i, align 8
  %2 = load ptr, ptr %cit_, align 8
  %cmp.i = icmp ne ptr %2, %1
  ret i1 %cmp.i
}